; Function Attrs: mustprogress uwtable
define dso_local void @_ZN15Sample_TileMesh11handleToolsEv(ptr noundef nonnull align 8 dereferenceable(404) %0) unnamed_addr #3 align 2 personality ptr @__gxx_personality_v0 {
  %2 = getelementptr inbounds i8, ptr %0, i64 104
  %3 = load ptr, ptr %2, align 8
  %.not = icmp eq ptr %3, null
  br i1 %.not, label %9, label %4

4:                                                ; preds = %1
  %5 = load ptr, ptr %3, align 8
  %6 = getelementptr inbounds i8, ptr %5, i64 16
  %7 = load ptr, ptr %6, align 8
  %8 = tail call noundef i32 %7(ptr noundef nonnull align 8 dereferenceable(8) %3)
  br label %9

9:                                                ; preds = %1, %4
  %10 = phi i32 [ %8, %4 ], [ 0, %1 ]
  %11 = icmp eq i32 %10, 4
  %12 = tail call noundef zeroext i1 @_Z10imguiCheckPKcbb(ptr noundef nonnull @.str.11, i1 noundef zeroext %11, i1 noundef zeroext true)
  br i1 %12, label %13, label %18

13:                                               ; preds = %9
  %14 = tail call noalias noundef nonnull dereferenceable(33408) ptr @_Znwm(i64 noundef 33408) #14
  invoke void @_ZN17NavMeshTesterToolC1Ev(ptr noundef nonnull align 8 dereferenceable(33408) %14)
          to label %15 unwind label %16

15:                                               ; preds = %13
  tail call void @_ZN6Sample7setToolEP10SampleTool(ptr noundef nonnull align 8 dereferenceable(200) %0, ptr noundef nonnull %14)
  br label %18

16:                                               ; preds = %13
  %17 = landingpad { ptr, i32 }
          cleanup
  br label %63

18:                                               ; preds = %15, %9
  %19 = icmp eq i32 %10, 5
  %20 = tail call noundef zeroext i1 @_Z10imguiCheckPKcbb(ptr noundef nonnull @.str.12, i1 noundef zeroext %19, i1 noundef zeroext true)
  br i1 %20, label %21, label %26

21:                                               ; preds = %18
  %22 = tail call noalias noundef nonnull dereferenceable(40) ptr @_Znwm(i64 noundef 40) #14
  invoke void @_ZN16NavMeshPruneToolC1Ev(ptr noundef nonnull align 8 dereferenceable(37) %22)
          to label %23 unwind label %24

23:                                               ; preds = %21
  tail call void @_ZN6Sample7setToolEP10SampleTool(ptr noundef nonnull align 8 dereferenceable(200) %0, ptr noundef nonnull %22)
  br label %26

24:                                               ; preds = %21
  %25 = landingpad { ptr, i32 }
          cleanup
  br label %63

26:                                               ; preds = %23, %18
  %27 = icmp eq i32 %10, 1
  %28 = tail call noundef zeroext i1 @_Z10imguiCheckPKcbb(ptr noundef nonnull @.str.13, i1 noundef zeroext %27, i1 noundef zeroext true)
  br i1 %28, label %29, label %32

29:                                               ; preds = %26
  %30 = tail call noalias noundef nonnull dereferenceable(32) ptr @_Znwm(i64 noundef 32) #14
  store ptr getelementptr inbounds ({ [14 x ptr] }, ptr @_ZTV15NavMeshTileTool, i64 0, i32 0, i64 2), ptr %30, align 8
  %31 = getelementptr inbounds i8, ptr %30, i64 8
  tail call void @llvm.memset.p0.i64(ptr noundef nonnull align 8 dereferenceable(21) %31, i8 0, i64 21, i1 false)
  tail call void @_ZN6Sample7setToolEP10SampleTool(ptr noundef nonnull align 8 dereferenceable(200) %0, ptr noundef nonnull %30)
  br label %32

32:                                               ; preds = %29, %26
  %33 = icmp eq i32 %10, 6
  %34 = tail call noundef zeroext i1 @_Z10imguiCheckPKcbb(ptr noundef nonnull @.str.14, i1 noundef zeroext %33, i1 noundef zeroext true)
  br i1 %34, label %35, label %40

35:                                               ; preds = %32
  %36 = tail call noalias noundef nonnull dereferenceable(32) ptr @_Znwm(i64 noundef 32) #14
  invoke void @_ZN21OffMeshConnectionToolC1Ev(ptr noundef nonnull align 8 dereferenceable(31) %36)
          to label %37 unwind label %38

37:                                               ; preds = %35
  tail call void @_ZN6Sample7setToolEP10SampleTool(ptr noundef nonnull align 8 dereferenceable(200) %0, ptr noundef nonnull %36)
  br label %40

38:                                               ; preds = %35
  %39 = landingpad { ptr, i32 }
          cleanup
  br label %63

40:                                               ; preds = %37, %32
  %41 = icmp eq i32 %10, 7
  %42 = tail call noundef zeroext i1 @_Z10imguiCheckPKcbb(ptr noundef nonnull @.str.15, i1 noundef zeroext %41, i1 noundef zeroext true)
  br i1 %42, label %43, label %48

43:                                               ; preds = %40
  %44 = tail call noalias noundef nonnull dereferenceable(232) ptr @_Znwm(i64 noundef 232) #14
  invoke void @_ZN16ConvexVolumeToolC1Ev(ptr noundef nonnull align 8 dereferenceable(232) %44)
          to label %45 unwind label %46

45:                                               ; preds = %43
  tail call void @_ZN6Sample7setToolEP10SampleTool(ptr noundef nonnull align 8 dereferenceable(200) %0, ptr noundef nonnull %44)
  br label %48

46:                                               ; preds = %43
  %47 = landingpad { ptr, i32 }
          cleanup
  br label %63

48:                                               ; preds = %45, %40
  %49 = icmp eq i32 %10, 8
  %50 = tail call noundef zeroext i1 @_Z10imguiCheckPKcbb(ptr noundef nonnull @.str.16, i1 noundef zeroext %49, i1 noundef zeroext true)
  br i1 %50, label %51, label %56

51:                                               ; preds = %48
  %52 = tail call noalias noundef nonnull dereferenceable(32) ptr @_Znwm(i64 noundef 32) #14
  invoke void @_ZN9CrowdToolC1Ev(ptr noundef nonnull align 8 dereferenceable(28) %52)
          to label %53 unwind label %54

53:                                               ; preds = %51
  tail call void @_ZN6Sample7setToolEP10SampleTool(ptr noundef nonnull align 8 dereferenceable(200) %0, ptr noundef nonnull %52)
  br label %56

54:                                               ; preds = %51
  %55 = landingpad { ptr, i32 }
          cleanup
  br label %63

56:                                               ; preds = %53, %48
  tail call void @_Z18imguiSeparatorLinev()
  tail call void @_Z11imguiIndentv()
  %57 = load ptr, ptr %2, align 8
  %.not12 = icmp eq ptr %57, null
  br i1 %.not12, label %62, label %58

58:                                               ; preds = %56
  %59 = load ptr, ptr %57, align 8
  %60 = getelementptr inbounds i8, ptr %59, i64 40
  %61 = load ptr, ptr %60, align 8
  tail call void %61(ptr noundef nonnull align 8 dereferenceable(8) %57)
  br label %62

62:                                               ; preds = %58, %56
  tail call void @_Z13imguiUnindentv()
  ret void

63:                                               ; preds = %54, %46, %38, %24, %16
  %.sink = phi ptr [ %52, %54 ], [ %44, %46 ], [ %36, %38 ], [ %22, %24 ], [ %14, %16 ]
  %.pn = phi { ptr, i32 } [ %55, %54 ], [ %47, %46 ], [ %39, %38 ], [ %25, %24 ], [ %17, %16 ]
  tail call void @_ZdlPv(ptr noundef nonnull %.sink) #13
  resume { ptr, i32 } %.pn
}